target datalayout = "e-m:e-p270:32:32-p271:32:32-p272:64:64-i64:64-i128:128-f80:128-n8:16:32:64-S128"
target triple = "x86_64-pc-linux-gnu"

%"class.sat::literal" = type { i32 }
%"struct.nlsat::interval" = type { i8, %"class.sat::literal", ptr, %"class.algebraic_numbers::anum", %"class.algebraic_numbers::anum" }
%"class.algebraic_numbers::anum" = type { ptr }
%"class.nlsat::interval_set_manager" = type <{ ptr, ptr, %class.svector, %class.random_gen, [4 x i8] }>
%class.svector = type { %class.vector }
%class.vector = type { ptr }
%class.random_gen = type { i32 }
%"class.nlsat::interval_set" = type { i32, i32, [0 x %"struct.nlsat::interval"] }

; Function Attrs: inlinehint mustprogress nounwind uwtable
define linkonce_odr hidden noundef zeroext i1 @_ZN3satneERKNS_7literalES2_(ptr noundef nonnull align 4 dereferenceable(4) %0, ptr noundef nonnull align 4 dereferenceable(4) %1) #9 comdat {
  %3 = alloca ptr, align 8
  %4 = alloca ptr, align 8
  store ptr %0, ptr %3, align 8, !tbaa !3
  store ptr %1, ptr %4, align 8, !tbaa !3
  %5 = load ptr, ptr %3, align 8, !tbaa !3
  %6 = getelementptr inbounds nuw %"class.sat::literal", ptr %5, i32 0, i32 0
  %7 = load i32, ptr %6, align 4, !tbaa !14
  %8 = load ptr, ptr %4, align 8, !tbaa !3
  %9 = getelementptr inbounds nuw %"class.sat::literal", ptr %8, i32 0, i32 0
  %10 = load i32, ptr %9, align 4, !tbaa !14
  %11 = icmp ne i32 %7, %10
  ret i1 %11
}

; Function Attrs: mustprogress uwtable
define hidden noundef zeroext i1 @_ZN5nlsat20interval_set_manager2eqEPKNS_12interval_setES3_(ptr noundef nonnull align 8 dereferenceable(28) %0, ptr noundef %1, ptr noundef %2) #6 align 2 {
  %4 = alloca i1, align 1
  %5 = alloca ptr, align 8
  %6 = alloca ptr, align 8
  %7 = alloca ptr, align 8
  %8 = alloca i32, align 4
  %9 = alloca i32, align 4
  %10 = alloca ptr, align 8
  %11 = alloca ptr, align 8
  store ptr %0, ptr %5, align 8, !tbaa !28
  store ptr %1, ptr %6, align 8, !tbaa !40
  store ptr %2, ptr %7, align 8, !tbaa !40
  %12 = load ptr, ptr %5, align 8
  %13 = load ptr, ptr %6, align 8, !tbaa !40
  %14 = icmp eq ptr %13, null
  br i1 %14, label %18, label %15

15:                                               ; preds = %3
  %16 = load ptr, ptr %7, align 8, !tbaa !40
  %17 = icmp eq ptr %16, null
  br i1 %17, label %18, label %22

18:                                               ; preds = %15, %3
  %19 = load ptr, ptr %6, align 8, !tbaa !40
  %20 = load ptr, ptr %7, align 8, !tbaa !40
  %21 = icmp eq ptr %19, %20
  store i1 %21, ptr %4, align 1
  br label %128

22:                                               ; preds = %15
  %23 = load ptr, ptr %6, align 8, !tbaa !40
  %24 = getelementptr inbounds nuw %"class.nlsat::interval_set", ptr %23, i32 0, i32 0
  %25 = load i32, ptr %24, align 8, !tbaa !42
  %26 = load ptr, ptr %7, align 8, !tbaa !40
  %27 = getelementptr inbounds nuw %"class.nlsat::interval_set", ptr %26, i32 0, i32 0
  %28 = load i32, ptr %27, align 8, !tbaa !42
  %29 = icmp ne i32 %25, %28
  br i1 %29, label %30, label %31

30:                                               ; preds = %22
  store i1 false, ptr %4, align 1
  br label %128

31:                                               ; preds = %22
  call void @llvm.lifetime.start.p0(i64 4, ptr %8) #3
  store i32 0, ptr %8, align 4, !tbaa !8
  br label %32

32:                                               ; preds = %122, %31
  %33 = load i32, ptr %8, align 4, !tbaa !8
  %34 = load ptr, ptr %6, align 8, !tbaa !40
  %35 = getelementptr inbounds nuw %"class.nlsat::interval_set", ptr %34, i32 0, i32 0
  %36 = load i32, ptr %35, align 8, !tbaa !42
  %37 = icmp ult i32 %33, %36
  br i1 %37, label %39, label %38

38:                                               ; preds = %32
  store i32 2, ptr %9, align 4
  br label %125

39:                                               ; preds = %32
  call void @llvm.lifetime.start.p0(i64 8, ptr %10) #3
  %40 = load ptr, ptr %6, align 8, !tbaa !40
  %41 = getelementptr inbounds nuw %"class.nlsat::interval_set", ptr %40, i32 0, i32 2
  %42 = load i32, ptr %8, align 4, !tbaa !8
  %43 = zext i32 %42 to i64
  %44 = getelementptr inbounds nuw [0 x %"struct.nlsat::interval"], ptr %41, i64 0, i64 %43
  store ptr %44, ptr %10, align 8, !tbaa !20
  call void @llvm.lifetime.start.p0(i64 8, ptr %11) #3
  %45 = load ptr, ptr %7, align 8, !tbaa !40
  %46 = getelementptr inbounds nuw %"class.nlsat::interval_set", ptr %45, i32 0, i32 2
  %47 = load i32, ptr %8, align 4, !tbaa !8
  %48 = zext i32 %47 to i64
  %49 = getelementptr inbounds nuw [0 x %"struct.nlsat::interval"], ptr %46, i64 0, i64 %48
  store ptr %49, ptr %11, align 8, !tbaa !20
  %50 = load ptr, ptr %10, align 8, !tbaa !20
  %51 = load i8, ptr %50, align 8
  %52 = lshr i8 %51, 2
  %53 = and i8 %52, 1
  %54 = zext i8 %53 to i32
  %55 = load ptr, ptr %11, align 8, !tbaa !20
  %56 = load i8, ptr %55, align 8
  %57 = lshr i8 %56, 2
  %58 = and i8 %57, 1
  %59 = zext i8 %58 to i32
  %60 = icmp ne i32 %54, %59
  br i1 %60, label %117, label %61

61:                                               ; preds = %39
  %62 = load ptr, ptr %10, align 8, !tbaa !20
  %63 = load i8, ptr %62, align 8
  %64 = and i8 %63, 1
  %65 = zext i8 %64 to i32
  %66 = load ptr, ptr %11, align 8, !tbaa !20
  %67 = load i8, ptr %66, align 8
  %68 = and i8 %67, 1
  %69 = zext i8 %68 to i32
  %70 = icmp ne i32 %65, %69
  br i1 %70, label %117, label %71

71:                                               ; preds = %61
  %72 = load ptr, ptr %10, align 8, !tbaa !20
  %73 = load i8, ptr %72, align 8
  %74 = lshr i8 %73, 3
  %75 = and i8 %74, 1
  %76 = zext i8 %75 to i32
  %77 = load ptr, ptr %11, align 8, !tbaa !20
  %78 = load i8, ptr %77, align 8
  %79 = lshr i8 %78, 3
  %80 = and i8 %79, 1
  %81 = zext i8 %80 to i32
  %82 = icmp ne i32 %76, %81
  br i1 %82, label %117, label %83

83:                                               ; preds = %71
  %84 = load ptr, ptr %10, align 8, !tbaa !20
  %85 = load i8, ptr %84, align 8
  %86 = lshr i8 %85, 1
  %87 = and i8 %86, 1
  %88 = zext i8 %87 to i32
  %89 = load ptr, ptr %11, align 8, !tbaa !20
  %90 = load i8, ptr %89, align 8
  %91 = lshr i8 %90, 1
  %92 = and i8 %91, 1
  %93 = zext i8 %92 to i32
  %94 = icmp ne i32 %88, %93
  br i1 %94, label %117, label %95

95:                                               ; preds = %83
  %96 = load ptr, ptr %10, align 8, !tbaa !20
  %97 = getelementptr inbounds nuw %"struct.nlsat::interval", ptr %96, i32 0, i32 1
  %98 = load ptr, ptr %11, align 8, !tbaa !20
  %99 = getelementptr inbounds nuw %"struct.nlsat::interval", ptr %98, i32 0, i32 1
  %100 = call noundef zeroext i1 @_ZN3satneERKNS_7literalES2_(ptr noundef nonnull align 4 dereferenceable(4) %97, ptr noundef nonnull align 4 dereferenceable(4) %99)
  br i1 %100, label %117, label %101

101:                                              ; preds = %95
  %102 = getelementptr inbounds nuw %"class.nlsat::interval_set_manager", ptr %12, i32 0, i32 0
  %103 = load ptr, ptr %102, align 8, !tbaa !44
  %104 = load ptr, ptr %10, align 8, !tbaa !20
  %105 = getelementptr inbounds nuw %"struct.nlsat::interval", ptr %104, i32 0, i32 3
  %106 = load ptr, ptr %11, align 8, !tbaa !20
  %107 = getelementptr inbounds nuw %"struct.nlsat::interval", ptr %106, i32 0, i32 3
  %108 = call noundef zeroext i1 @_ZN17algebraic_numbers7manager2eqERKNS_4anumES3_(ptr noundef nonnull align 8 dereferenceable(17) %103, ptr noundef nonnull align 8 dereferenceable(8) %105, ptr noundef nonnull align 8 dereferenceable(8) %107)
  br i1 %108, label %109, label %117

109:                                              ; preds = %101
  %110 = getelementptr inbounds nuw %"class.nlsat::interval_set_manager", ptr %12, i32 0, i32 0
  %111 = load ptr, ptr %110, align 8, !tbaa !44
  %112 = load ptr, ptr %10, align 8, !tbaa !20
  %113 = getelementptr inbounds nuw %"struct.nlsat::interval", ptr %112, i32 0, i32 4
  %114 = load ptr, ptr %11, align 8, !tbaa !20
  %115 = getelementptr inbounds nuw %"struct.nlsat::interval", ptr %114, i32 0, i32 4
  %116 = call noundef zeroext i1 @_ZN17algebraic_numbers7manager2eqERKNS_4anumES3_(ptr noundef nonnull align 8 dereferenceable(17) %111, ptr noundef nonnull align 8 dereferenceable(8) %113, ptr noundef nonnull align 8 dereferenceable(8) %115)
  br i1 %116, label %118, label %117

117:                                              ; preds = %109, %101, %95, %83, %71, %61, %39
  store i1 false, ptr %4, align 1
  store i32 1, ptr %9, align 4
  br label %119

118:                                              ; preds = %109
  store i32 0, ptr %9, align 4
  br label %119

119:                                              ; preds = %118, %117
  call void @llvm.lifetime.end.p0(i64 8, ptr %11) #3
  call void @llvm.lifetime.end.p0(i64 8, ptr %10) #3
  %120 = load i32, ptr %9, align 4
  switch i32 %120, label %125 [
    i32 0, label %121
  ]

121:                                              ; preds = %119
  br label %122

122:                                              ; preds = %121
  %123 = load i32, ptr %8, align 4, !tbaa !8
  %124 = add i32 %123, 1
  store i32 %124, ptr %8, align 4, !tbaa !8
  br label %32, !llvm.loop !76

125:                                              ; preds = %119, %38
  call void @llvm.lifetime.end.p0(i64 4, ptr %8) #3
  %126 = load i32, ptr %9, align 4
  switch i32 %126, label %130 [
    i32 2, label %127
    i32 1, label %128
  ]

127:                                              ; preds = %125
  store i1 true, ptr %4, align 1
  br label %128

128:                                              ; preds = %127, %125, %30, %18
  %129 = load i1, ptr %4, align 1
  ret i1 %129

130:                                              ; preds = %125
  unreachable
}