; Function Attrs: mustprogress uwtable
define hidden noundef zeroext i1 @_ZN5nlsat20interval_set_manager2eqEPKNS_12interval_setES3_(ptr noundef nonnull readonly align 8 captures(none) dereferenceable(28) %0, ptr noundef %1, ptr noundef %2) local_unnamed_addr #4 align 2 {
  %4 = icmp eq ptr %1, null
  %5 = icmp eq ptr %2, null
  %or.cond = or i1 %4, %5
  br i1 %or.cond, label %6, label %8

6:                                                ; preds = %3
  %7 = icmp eq ptr %1, %2
  br label %.loopexit

8:                                                ; preds = %3
  %9 = load i32, ptr %1, align 8, !tbaa !18
  %10 = load i32, ptr %2, align 8, !tbaa !18
  %.not = icmp eq i32 %9, %10
  br i1 %.not, label %.preheader, label %.loopexit

.preheader:                                       ; preds = %8
  %11 = getelementptr inbounds nuw i8, ptr %1, i64 8
  %12 = icmp eq i32 %9, 0
  br i1 %12, label %.loopexit, label %.lr.ph

.lr.ph:                                           ; preds = %.preheader
  %13 = getelementptr inbounds nuw i8, ptr %2, i64 8
  br label %17

14:                                               ; preds = %.critedge
  %indvars.iv.next = add nuw nsw i64 %indvars.iv, 1
  %15 = load i32, ptr %1, align 8, !tbaa !18
  %16 = zext i32 %15 to i64
  %.not52 = icmp samesign ult i64 %indvars.iv.next, %16
  br i1 %.not52, label %17, label %.loopexit, !llvm.loop !48

17:                                               ; preds = %.lr.ph, %14
  %indvars.iv = phi i64 [ 0, %.lr.ph ], [ %indvars.iv.next, %14 ]
  %18 = getelementptr inbounds nuw [0 x %"struct.nlsat::interval"], ptr %11, i64 0, i64 %indvars.iv
  %19 = getelementptr inbounds nuw [0 x %"struct.nlsat::interval"], ptr %13, i64 0, i64 %indvars.iv
  %20 = load i8, ptr %18, align 8
  %21 = load i8, ptr %19, align 8
  %22 = xor i8 %21, %20
  %23 = and i8 %22, 15
  %or.cond42 = icmp eq i8 %23, 0
  br i1 %or.cond42, label %24, label %.loopexit

24:                                               ; preds = %17
  %25 = getelementptr inbounds nuw i8, ptr %18, i64 4
  %26 = getelementptr inbounds nuw i8, ptr %19, i64 4
  %27 = load i32, ptr %25, align 4, !tbaa !3
  %28 = load i32, ptr %26, align 4, !tbaa !3
  %.not43 = icmp eq i32 %27, %28
  br i1 %.not43, label %29, label %.loopexit

29:                                               ; preds = %24
  %30 = load ptr, ptr %0, align 8, !tbaa !23
  %31 = getelementptr inbounds nuw i8, ptr %18, i64 16
  %32 = getelementptr inbounds nuw i8, ptr %19, i64 16
  %33 = tail call noundef zeroext i1 @_ZN17algebraic_numbers7manager2eqERKNS_4anumES3_(ptr noundef nonnull align 8 dereferenceable(17) %30, ptr noundef nonnull align 8 dereferenceable(8) %31, ptr noundef nonnull align 8 dereferenceable(8) %32)
  br i1 %33, label %.critedge, label %.loopexit

.critedge:                                        ; preds = %29
  %34 = load ptr, ptr %0, align 8, !tbaa !23
  %35 = getelementptr inbounds nuw i8, ptr %18, i64 24
  %36 = getelementptr inbounds nuw i8, ptr %19, i64 24
  %37 = tail call noundef zeroext i1 @_ZN17algebraic_numbers7manager2eqERKNS_4anumES3_(ptr noundef nonnull align 8 dereferenceable(17) %34, ptr noundef nonnull align 8 dereferenceable(8) %35, ptr noundef nonnull align 8 dereferenceable(8) %36)
  br i1 %37, label %14, label %.loopexit

.loopexit:                                        ; preds = %.critedge, %29, %24, %17, %14, %.preheader, %8, %6
  %.0 = phi i1 [ %7, %6 ], [ false, %8 ], [ true, %.preheader ], [ false, %.critedge ], [ false, %29 ], [ false, %24 ], [ false, %17 ], [ true, %14 ]
  ret i1 %.0
}